target datalayout = "e-m:e-p270:32:32-p271:32:32-p272:64:64-i64:64-i128:128-f80:128-n8:16:32:64-S128"
target triple = "x86_64-pc-linux-gnu"

%class.Register = type { i32 }

@_ZN19Abstract_VM_Version9_featuresE = external global i64, align 8

; Function Attrs: mustprogress nounwind uwtable
define linkonce_odr hidden noundef zeroext i1 @_ZN10VM_Version13supports_bmi1Ev() #1 comdat align 2 {
  %1 = load i64, ptr @_ZN19Abstract_VM_Version9_featuresE, align 8
  %2 = and i64 %1, 8388608
  %3 = icmp ne i64 %2, 0
  ret i1 %3
}

; Function Attrs: mustprogress nounwind uwtable
define linkonce_odr hidden noundef zeroext i1 @_ZN10VM_Version14supports_lzcntEv() #1 comdat align 2 {
  %1 = load i64, ptr @_ZN19Abstract_VM_Version9_featuresE, align 8
  %2 = and i64 %1, 16384
  %3 = icmp ne i64 %2, 0
  ret i1 %3
}

; Function Attrs: mustprogress nounwind uwtable
define hidden void @_ZN17C2_MacroAssembler28vector_mask_operation_helperEi8RegisterS0_i(ptr noundef nonnull align 8 dereferenceable(40) %0, i32 noundef %1, i32 %2, i32 %3, i32 noundef %4) #1 align 2 {
  %6 = alloca %class.Register, align 4
  %7 = alloca %class.Register, align 4
  %8 = alloca ptr, align 8
  %9 = alloca i32, align 4
  %10 = alloca i32, align 4
  %11 = alloca %class.Register, align 4
  %12 = alloca %class.Register, align 4
  %13 = alloca %class.Register, align 4
  %14 = alloca %class.Register, align 4
  %15 = alloca %class.Register, align 4
  %16 = alloca %class.Register, align 4
  %17 = alloca %class.Register, align 4
  %18 = alloca %class.Register, align 4
  %19 = alloca %class.Register, align 4
  %20 = alloca %class.Register, align 4
  %21 = alloca %class.Register, align 4
  %22 = alloca %class.Register, align 4
  %23 = alloca %class.Register, align 4
  %24 = alloca %class.Register, align 4
  %25 = alloca %class.Register, align 4
  %26 = alloca %class.Register, align 4
  %27 = alloca %class.Register, align 4
  %28 = alloca %class.Register, align 4
  %29 = alloca %class.Register, align 4
  %30 = alloca %class.Register, align 4
  %31 = alloca %class.Register, align 4
  %32 = alloca %class.Register, align 4
  %33 = alloca %class.Register, align 4
  %34 = alloca %class.Register, align 4
  %35 = alloca %class.Register, align 4
  %36 = alloca %class.Register, align 4
  %37 = alloca %class.Register, align 4
  %38 = alloca %class.Register, align 4
  %39 = alloca %class.Register, align 4
  %40 = getelementptr inbounds %class.Register, ptr %6, i32 0, i32 0
  store i32 %2, ptr %40, align 4
  %41 = getelementptr inbounds %class.Register, ptr %7, i32 0, i32 0
  store i32 %3, ptr %41, align 4
  store ptr %0, ptr %8, align 8
  store i32 %1, ptr %9, align 4
  store i32 %4, ptr %10, align 4
  %42 = load ptr, ptr %8, align 8
  %43 = load i32, ptr %9, align 4
  switch i32 %43, label %139 [
    i32 438, label %44
    i32 440, label %49
    i32 439, label %74
    i32 441, label %138
  ]

44:                                               ; preds = %5
  call void @llvm.memcpy.p0.p0.i64(ptr align 4 %11, ptr align 4 %6, i64 4, i1 false)
  call void @llvm.memcpy.p0.p0.i64(ptr align 4 %12, ptr align 4 %7, i64 4, i1 false)
  %45 = getelementptr inbounds %class.Register, ptr %11, i32 0, i32 0
  %46 = load i32, ptr %45, align 4
  %47 = getelementptr inbounds %class.Register, ptr %12, i32 0, i32 0
  %48 = load i32, ptr %47, align 4
  call void @_ZN9Assembler7popcntqE8RegisterS0_(ptr noundef nonnull align 8 dereferenceable(40) %42, i32 %46, i32 %48)
  br label %140

49:                                               ; preds = %5
  %50 = call noundef zeroext i1 @_ZN10VM_Version14supports_lzcntEv()
  br i1 %50, label %51, label %62

51:                                               ; preds = %49
  call void @llvm.memcpy.p0.p0.i64(ptr align 4 %13, ptr align 4 %7, i64 4, i1 false)
  call void @llvm.memcpy.p0.p0.i64(ptr align 4 %14, ptr align 4 %7, i64 4, i1 false)
  %52 = getelementptr inbounds %class.Register, ptr %13, i32 0, i32 0
  %53 = load i32, ptr %52, align 4
  %54 = getelementptr inbounds %class.Register, ptr %14, i32 0, i32 0
  %55 = load i32, ptr %54, align 4
  call void @_ZN9Assembler6lzcntqE8RegisterS0_(ptr noundef nonnull align 8 dereferenceable(40) %42, i32 %53, i32 %55)
  call void @llvm.memcpy.p0.p0.i64(ptr align 4 %15, ptr align 4 %6, i64 4, i1 false)
  %56 = getelementptr inbounds %class.Register, ptr %15, i32 0, i32 0
  %57 = load i32, ptr %56, align 4
  call void @_ZN9Assembler4movlE8Registeri(ptr noundef nonnull align 8 dereferenceable(40) %42, i32 %57, i32 noundef 63)
  call void @llvm.memcpy.p0.p0.i64(ptr align 4 %16, ptr align 4 %6, i64 4, i1 false)
  call void @llvm.memcpy.p0.p0.i64(ptr align 4 %17, ptr align 4 %7, i64 4, i1 false)
  %58 = getelementptr inbounds %class.Register, ptr %16, i32 0, i32 0
  %59 = load i32, ptr %58, align 4
  %60 = getelementptr inbounds %class.Register, ptr %17, i32 0, i32 0
  %61 = load i32, ptr %60, align 4
  call void @_ZN9Assembler4sublE8RegisterS0_(ptr noundef nonnull align 8 dereferenceable(40) %42, i32 %59, i32 %61)
  br label %73

62:                                               ; preds = %49
  call void @llvm.memcpy.p0.p0.i64(ptr align 4 %18, ptr align 4 %6, i64 4, i1 false)
  %63 = getelementptr inbounds %class.Register, ptr %18, i32 0, i32 0
  %64 = load i32, ptr %63, align 4
  call void @_ZN9Assembler4movlE8Registeri(ptr noundef nonnull align 8 dereferenceable(40) %42, i32 %64, i32 noundef -1)
  call void @llvm.memcpy.p0.p0.i64(ptr align 4 %19, ptr align 4 %7, i64 4, i1 false)
  call void @llvm.memcpy.p0.p0.i64(ptr align 4 %20, ptr align 4 %7, i64 4, i1 false)
  %65 = getelementptr inbounds %class.Register, ptr %19, i32 0, i32 0
  %66 = load i32, ptr %65, align 4
  %67 = getelementptr inbounds %class.Register, ptr %20, i32 0, i32 0
  %68 = load i32, ptr %67, align 4
  call void @_ZN9Assembler4bsrqE8RegisterS0_(ptr noundef nonnull align 8 dereferenceable(40) %42, i32 %66, i32 %68)
  call void @llvm.memcpy.p0.p0.i64(ptr align 4 %21, ptr align 4 %6, i64 4, i1 false)
  call void @llvm.memcpy.p0.p0.i64(ptr align 4 %22, ptr align 4 %7, i64 4, i1 false)
  %69 = getelementptr inbounds %class.Register, ptr %21, i32 0, i32 0
  %70 = load i32, ptr %69, align 4
  %71 = getelementptr inbounds %class.Register, ptr %22, i32 0, i32 0
  %72 = load i32, ptr %71, align 4
  call void @_ZN14MacroAssembler6cmov32EN9Assembler9ConditionE8RegisterS2_(ptr noundef nonnull align 8 dereferenceable(40) %42, i32 noundef 5, i32 %70, i32 %72)
  br label %73

73:                                               ; preds = %62, %51
  br label %140

74:                                               ; preds = %5
  %75 = call noundef zeroext i1 @_ZN10VM_Version13supports_bmi1Ev()
  br i1 %75, label %76, label %103

76:                                               ; preds = %74
  %77 = load i32, ptr %10, align 4
  %78 = icmp slt i32 %77, 32
  br i1 %78, label %79, label %88

79:                                               ; preds = %76
  call void @llvm.memcpy.p0.p0.i64(ptr align 4 %23, ptr align 4 %7, i64 4, i1 false)
  %80 = load i32, ptr %10, align 4
  %81 = shl i32 1, %80
  %82 = getelementptr inbounds %class.Register, ptr %23, i32 0, i32 0
  %83 = load i32, ptr %82, align 4
  call void @_ZN9Assembler3orlE8Registeri(ptr noundef nonnull align 8 dereferenceable(40) %42, i32 %83, i32 noundef %81)
  call void @llvm.memcpy.p0.p0.i64(ptr align 4 %24, ptr align 4 %6, i64 4, i1 false)
  call void @llvm.memcpy.p0.p0.i64(ptr align 4 %25, ptr align 4 %7, i64 4, i1 false)
  %84 = getelementptr inbounds %class.Register, ptr %24, i32 0, i32 0
  %85 = load i32, ptr %84, align 4
  %86 = getelementptr inbounds %class.Register, ptr %25, i32 0, i32 0
  %87 = load i32, ptr %86, align 4
  call void @_ZN9Assembler6tzcntlE8RegisterS0_(ptr noundef nonnull align 8 dereferenceable(40) %42, i32 %85, i32 %87)
  br label %102

88:                                               ; preds = %76
  %89 = load i32, ptr %10, align 4
  %90 = icmp eq i32 %89, 32
  br i1 %90, label %91, label %96

91:                                               ; preds = %88
  call void @llvm.memcpy.p0.p0.i64(ptr align 4 %26, ptr align 4 %6, i64 4, i1 false)
  call void @llvm.memcpy.p0.p0.i64(ptr align 4 %27, ptr align 4 %7, i64 4, i1 false)
  %92 = getelementptr inbounds %class.Register, ptr %26, i32 0, i32 0
  %93 = load i32, ptr %92, align 4
  %94 = getelementptr inbounds %class.Register, ptr %27, i32 0, i32 0
  %95 = load i32, ptr %94, align 4
  call void @_ZN9Assembler6tzcntlE8RegisterS0_(ptr noundef nonnull align 8 dereferenceable(40) %42, i32 %93, i32 %95)
  br label %101

96:                                               ; preds = %88
  call void @llvm.memcpy.p0.p0.i64(ptr align 4 %28, ptr align 4 %6, i64 4, i1 false)
  call void @llvm.memcpy.p0.p0.i64(ptr align 4 %29, ptr align 4 %7, i64 4, i1 false)
  %97 = getelementptr inbounds %class.Register, ptr %28, i32 0, i32 0
  %98 = load i32, ptr %97, align 4
  %99 = getelementptr inbounds %class.Register, ptr %29, i32 0, i32 0
  %100 = load i32, ptr %99, align 4
  call void @_ZN9Assembler6tzcntqE8RegisterS0_(ptr noundef nonnull align 8 dereferenceable(40) %42, i32 %98, i32 %100)
  br label %101

101:                                              ; preds = %96, %91
  br label %102

102:                                              ; preds = %101, %79
  br label %137

103:                                              ; preds = %74
  %104 = load i32, ptr %10, align 4
  %105 = icmp slt i32 %104, 32
  br i1 %105, label %106, label %115

106:                                              ; preds = %103
  call void @llvm.memcpy.p0.p0.i64(ptr align 4 %30, ptr align 4 %7, i64 4, i1 false)
  %107 = load i32, ptr %10, align 4
  %108 = shl i32 1, %107
  %109 = getelementptr inbounds %class.Register, ptr %30, i32 0, i32 0
  %110 = load i32, ptr %109, align 4
  call void @_ZN9Assembler3orlE8Registeri(ptr noundef nonnull align 8 dereferenceable(40) %42, i32 %110, i32 noundef %108)
  call void @llvm.memcpy.p0.p0.i64(ptr align 4 %31, ptr align 4 %6, i64 4, i1 false)
  call void @llvm.memcpy.p0.p0.i64(ptr align 4 %32, ptr align 4 %7, i64 4, i1 false)
  %111 = getelementptr inbounds %class.Register, ptr %31, i32 0, i32 0
  %112 = load i32, ptr %111, align 4
  %113 = getelementptr inbounds %class.Register, ptr %32, i32 0, i32 0
  %114 = load i32, ptr %113, align 4
  call void @_ZN9Assembler4bsflE8RegisterS0_(ptr noundef nonnull align 8 dereferenceable(40) %42, i32 %112, i32 %114)
  br label %136

115:                                              ; preds = %103
  call void @llvm.memcpy.p0.p0.i64(ptr align 4 %33, ptr align 4 %6, i64 4, i1 false)
  %116 = load i32, ptr %10, align 4
  %117 = getelementptr inbounds %class.Register, ptr %33, i32 0, i32 0
  %118 = load i32, ptr %117, align 4
  call void @_ZN9Assembler4movlE8Registeri(ptr noundef nonnull align 8 dereferenceable(40) %42, i32 %118, i32 noundef %116)
  %119 = load i32, ptr %10, align 4
  %120 = icmp eq i32 %119, 32
  br i1 %120, label %121, label %126

121:                                              ; preds = %115
  call void @llvm.memcpy.p0.p0.i64(ptr align 4 %34, ptr align 4 %7, i64 4, i1 false)
  call void @llvm.memcpy.p0.p0.i64(ptr align 4 %35, ptr align 4 %7, i64 4, i1 false)
  %122 = getelementptr inbounds %class.Register, ptr %34, i32 0, i32 0
  %123 = load i32, ptr %122, align 4
  %124 = getelementptr inbounds %class.Register, ptr %35, i32 0, i32 0
  %125 = load i32, ptr %124, align 4
  call void @_ZN9Assembler4bsflE8RegisterS0_(ptr noundef nonnull align 8 dereferenceable(40) %42, i32 %123, i32 %125)
  br label %131

126:                                              ; preds = %115
  call void @llvm.memcpy.p0.p0.i64(ptr align 4 %36, ptr align 4 %7, i64 4, i1 false)
  call void @llvm.memcpy.p0.p0.i64(ptr align 4 %37, ptr align 4 %7, i64 4, i1 false)
  %127 = getelementptr inbounds %class.Register, ptr %36, i32 0, i32 0
  %128 = load i32, ptr %127, align 4
  %129 = getelementptr inbounds %class.Register, ptr %37, i32 0, i32 0
  %130 = load i32, ptr %129, align 4
  call void @_ZN9Assembler4bsfqE8RegisterS0_(ptr noundef nonnull align 8 dereferenceable(40) %42, i32 %128, i32 %130)
  br label %131

131:                                              ; preds = %126, %121
  call void @llvm.memcpy.p0.p0.i64(ptr align 4 %38, ptr align 4 %6, i64 4, i1 false)
  call void @llvm.memcpy.p0.p0.i64(ptr align 4 %39, ptr align 4 %7, i64 4, i1 false)
  %132 = getelementptr inbounds %class.Register, ptr %38, i32 0, i32 0
  %133 = load i32, ptr %132, align 4
  %134 = getelementptr inbounds %class.Register, ptr %39, i32 0, i32 0
  %135 = load i32, ptr %134, align 4
  call void @_ZN14MacroAssembler6cmov32EN9Assembler9ConditionE8RegisterS2_(ptr noundef nonnull align 8 dereferenceable(40) %42, i32 noundef 5, i32 %133, i32 %135)
  br label %136

136:                                              ; preds = %131, %106
  br label %137

137:                                              ; preds = %136, %102
  br label %140

138:                                              ; preds = %5
  br label %140

139:                                              ; preds = %5
  br label %140

140:                                              ; preds = %139, %138, %137, %73, %44
  ret void
}