; Function Attrs: mustprogress nounwind uwtable
define hidden void @_ZN17C2_MacroAssembler28vector_mask_operation_helperEi8RegisterS0_i(ptr noundef nonnull align 8 dereferenceable(40) %0, i32 noundef %1, i32 %2, i32 %3, i32 noundef %4) local_unnamed_addr #0 align 2 {
  switch i32 %1, label %31 [
    i32 438, label %6
    i32 440, label %7
    i32 439, label %12
  ]

6:                                                ; preds = %5
  tail call void @_ZN9Assembler7popcntqE8RegisterS0_(ptr noundef nonnull align 8 dereferenceable(40) %0, i32 %2, i32 %3) #11
  br label %31

7:                                                ; preds = %5
  %8 = load i64, ptr @_ZN19Abstract_VM_Version9_featuresE, align 8
  %9 = and i64 %8, 16384
  %.not65 = icmp eq i64 %9, 0
  br i1 %.not65, label %11, label %10

10:                                               ; preds = %7
  tail call void @_ZN9Assembler6lzcntqE8RegisterS0_(ptr noundef nonnull align 8 dereferenceable(40) %0, i32 %3, i32 %3) #11
  tail call void @_ZN9Assembler4movlE8Registeri(ptr noundef nonnull align 8 dereferenceable(40) %0, i32 %2, i32 noundef 63) #11
  tail call void @_ZN9Assembler4sublE8RegisterS0_(ptr noundef nonnull align 8 dereferenceable(40) %0, i32 %2, i32 %3) #11
  br label %31

11:                                               ; preds = %7
  tail call void @_ZN9Assembler4movlE8Registeri(ptr noundef nonnull align 8 dereferenceable(40) %0, i32 %2, i32 noundef -1) #11
  tail call void @_ZN9Assembler4bsrqE8RegisterS0_(ptr noundef nonnull align 8 dereferenceable(40) %0, i32 %3, i32 %3) #11
  tail call void @_ZN14MacroAssembler6cmov32EN9Assembler9ConditionE8RegisterS2_(ptr noundef nonnull align 8 dereferenceable(40) %0, i32 noundef 5, i32 %2, i32 %3) #11
  br label %31

12:                                               ; preds = %5
  %13 = load i64, ptr @_ZN19Abstract_VM_Version9_featuresE, align 8
  %14 = and i64 %13, 8388608
  %.not = icmp eq i64 %14, 0
  %15 = icmp slt i32 %4, 32
  br i1 %.not, label %23, label %16

16:                                               ; preds = %12
  br i1 %15, label %17, label %19

17:                                               ; preds = %16
  %18 = shl nuw i32 1, %4
  tail call void @_ZN9Assembler3orlE8Registeri(ptr noundef nonnull align 8 dereferenceable(40) %0, i32 %3, i32 noundef %18) #11
  tail call void @_ZN9Assembler6tzcntlE8RegisterS0_(ptr noundef nonnull align 8 dereferenceable(40) %0, i32 %2, i32 %3) #11
  br label %31

19:                                               ; preds = %16
  %20 = icmp eq i32 %4, 32
  br i1 %20, label %21, label %22

21:                                               ; preds = %19
  tail call void @_ZN9Assembler6tzcntlE8RegisterS0_(ptr noundef nonnull align 8 dereferenceable(40) %0, i32 %2, i32 %3) #11
  br label %31

22:                                               ; preds = %19
  tail call void @_ZN9Assembler6tzcntqE8RegisterS0_(ptr noundef nonnull align 8 dereferenceable(40) %0, i32 %2, i32 %3) #11
  br label %31

23:                                               ; preds = %12
  br i1 %15, label %24, label %26

24:                                               ; preds = %23
  %25 = shl nuw i32 1, %4
  tail call void @_ZN9Assembler3orlE8Registeri(ptr noundef nonnull align 8 dereferenceable(40) %0, i32 %3, i32 noundef %25) #11
  tail call void @_ZN9Assembler4bsflE8RegisterS0_(ptr noundef nonnull align 8 dereferenceable(40) %0, i32 %2, i32 %3) #11
  br label %31

26:                                               ; preds = %23
  tail call void @_ZN9Assembler4movlE8Registeri(ptr noundef nonnull align 8 dereferenceable(40) %0, i32 %2, i32 noundef %4) #11
  %27 = icmp eq i32 %4, 32
  br i1 %27, label %28, label %29

28:                                               ; preds = %26
  tail call void @_ZN9Assembler4bsflE8RegisterS0_(ptr noundef nonnull align 8 dereferenceable(40) %0, i32 %3, i32 %3) #11
  br label %30

29:                                               ; preds = %26
  tail call void @_ZN9Assembler4bsfqE8RegisterS0_(ptr noundef nonnull align 8 dereferenceable(40) %0, i32 %3, i32 %3) #11
  br label %30

30:                                               ; preds = %29, %28
  tail call void @_ZN14MacroAssembler6cmov32EN9Assembler9ConditionE8RegisterS2_(ptr noundef nonnull align 8 dereferenceable(40) %0, i32 noundef 5, i32 %2, i32 %3) #11
  br label %31

31:                                               ; preds = %5, %21, %22, %17, %30, %24, %10, %11, %6
  ret void
}